; Function Attrs: mustprogress uwtable
define hidden void @_ZN2cv17createDerivFilterEiiiiii(ptr dead_on_unwind noalias writable sret(%"struct.cv::Ptr") align 8 %0, i32 noundef %1, i32 noundef %2, i32 noundef %3, i32 noundef %4, i32 noundef %5, i32 noundef %6) local_unnamed_addr #0 personality ptr @__gxx_personality_v0 {
  %8 = alloca %"class.cv::Mat", align 8
  %9 = alloca %"class.cv::Mat", align 8
  %10 = alloca %"class.cv::_OutputArray", align 8
  %11 = alloca %"class.cv::_OutputArray", align 8
  %12 = alloca %"class.cv::_InputArray", align 8
  %13 = alloca %"class.cv::_InputArray", align 8
  %14 = alloca %"class.cv::Scalar_", align 8
  call void @_ZN2cv3MatC1Ev(ptr noundef nonnull align 8 dereferenceable(96) %8) #12
  call void @_ZN2cv3MatC1Ev(ptr noundef nonnull align 8 dereferenceable(96) %9) #12
  %15 = getelementptr inbounds i8, ptr %10, i64 8
  %16 = getelementptr inbounds i8, ptr %10, i64 16
  store i64 0, ptr %16, align 8
  store i32 33619968, ptr %10, align 8
  store ptr %8, ptr %15, align 8
  %17 = getelementptr inbounds i8, ptr %11, i64 8
  %18 = getelementptr inbounds i8, ptr %11, i64 16
  store i64 0, ptr %18, align 8
  store i32 33619968, ptr %11, align 8
  store ptr %9, ptr %17, align 8
  %19 = icmp slt i32 %5, 1
  br i1 %19, label %20, label %21

20:                                               ; preds = %7
  invoke fastcc void @_ZN2cvL16getScharrKernelsERKNS_12_OutputArrayES2_iibi(ptr noundef nonnull align 8 dereferenceable(24) %10, ptr noundef nonnull align 8 dereferenceable(24) %11, i32 noundef %3, i32 noundef %4, i1 noundef zeroext false, i32 noundef 5)
          to label %22 unwind label %30

21:                                               ; preds = %7
  invoke fastcc void @_ZN2cvL15getSobelKernelsERKNS_12_OutputArrayES2_iiibi(ptr noundef nonnull align 8 dereferenceable(24) %10, ptr noundef nonnull align 8 dereferenceable(24) %11, i32 noundef %3, i32 noundef %4, i32 noundef %5, i1 noundef zeroext false, i32 noundef 5)
          to label %22 unwind label %30

22:                                               ; preds = %21, %20
  %23 = getelementptr inbounds i8, ptr %12, i64 16
  store i32 0, ptr %23, align 8
  %24 = getelementptr inbounds i8, ptr %12, i64 20
  store i32 0, ptr %24, align 4
  store i32 16842752, ptr %12, align 8
  %25 = getelementptr inbounds i8, ptr %12, i64 8
  store ptr %8, ptr %25, align 8
  %26 = getelementptr inbounds i8, ptr %13, i64 16
  store i32 0, ptr %26, align 8
  %27 = getelementptr inbounds i8, ptr %13, i64 20
  store i32 0, ptr %27, align 4
  store i32 16842752, ptr %13, align 8
  %28 = getelementptr inbounds i8, ptr %13, i64 8
  store ptr %9, ptr %28, align 8
  call void @llvm.memset.p0.i64(ptr noundef nonnull align 8 dereferenceable(32) %14, i8 0, i64 32, i1 false)
  invoke void @_ZN2cv27createSeparableLinearFilterEiiRKNS_11_InputArrayES2_NS_6Point_IiEEdiiRKNS_7Scalar_IdEE(ptr dead_on_unwind writable sret(%"struct.cv::Ptr") align 8 %0, i32 noundef %1, i32 noundef %2, ptr noundef nonnull align 8 dereferenceable(24) %12, ptr noundef nonnull align 8 dereferenceable(24) %13, i64 -1, double noundef 0.000000e+00, i32 noundef %6, i32 noundef -1, ptr noundef nonnull align 8 dereferenceable(32) %14)
          to label %29 unwind label %32

29:                                               ; preds = %22
  call void @_ZN2cv3MatD1Ev(ptr noundef nonnull align 8 dereferenceable(96) %9) #12
  call void @_ZN2cv3MatD1Ev(ptr noundef nonnull align 8 dereferenceable(96) %8) #12
  ret void

30:                                               ; preds = %21, %20
  %31 = landingpad { ptr, i32 }
          cleanup
  br label %34

32:                                               ; preds = %22
  %33 = landingpad { ptr, i32 }
          cleanup
  br label %34

34:                                               ; preds = %32, %30
  %.pn11.pn = phi { ptr, i32 } [ %31, %30 ], [ %33, %32 ]
  call void @_ZN2cv3MatD1Ev(ptr noundef nonnull align 8 dereferenceable(96) %9) #12
  call void @_ZN2cv3MatD1Ev(ptr noundef nonnull align 8 dereferenceable(96) %8) #12
  resume { ptr, i32 } %.pn11.pn
}